; Function Attrs: mustprogress nounwind uwtable
define dso_local noundef nonnull align 8 dereferenceable(104) ptr @_ZN4node6crypto15AESCipherConfigaSEOS1_(ptr noundef nonnull returned align 8 dereferenceable(104) %this, ptr noundef nonnull align 8 dereferenceable(104) %other) local_unnamed_addr #3 align 2 {
entry:
  %cmp = icmp eq ptr %other, %this
  br i1 %cmp, label %return, label %if.end

if.end:                                           ; preds = %entry
  %tag.i = getelementptr inbounds i8, ptr %this, i64 80
  tail call void @_ZN4node6crypto10ByteSourceD1Ev(ptr noundef nonnull align 8 dereferenceable(24) %tag.i) #16
  %additional_data.i = getelementptr inbounds i8, ptr %this, i64 56
  tail call void @_ZN4node6crypto10ByteSourceD1Ev(ptr noundef nonnull align 8 dereferenceable(24) %additional_data.i) #16
  %iv.i = getelementptr inbounds i8, ptr %this, i64 32
  tail call void @_ZN4node6crypto10ByteSourceD1Ev(ptr noundef nonnull align 8 dereferenceable(24) %iv.i) #16
  store ptr getelementptr inbounds ({ [10 x ptr] }, ptr @_ZTVN4node6crypto15AESCipherConfigE, i64 0, i32 0, i64 2), ptr %this, align 8
  %mode.i = getelementptr inbounds i8, ptr %this, i64 8
  %mode2.i = getelementptr inbounds i8, ptr %other, i64 8
  %0 = load i32, ptr %mode2.i, align 8
  store i32 %0, ptr %mode.i, align 8
  %variant.i = getelementptr inbounds i8, ptr %this, i64 12
  %variant3.i = getelementptr inbounds i8, ptr %other, i64 12
  %1 = load i32, ptr %variant3.i, align 4
  store i32 %1, ptr %variant.i, align 4
  %cipher.i = getelementptr inbounds i8, ptr %this, i64 16
  %cipher4.i = getelementptr inbounds i8, ptr %other, i64 16
  %2 = load ptr, ptr %cipher4.i, align 8
  store ptr %2, ptr %cipher.i, align 8
  %length.i = getelementptr inbounds i8, ptr %this, i64 24
  %length5.i = getelementptr inbounds i8, ptr %other, i64 24
  %3 = load i64, ptr %length5.i, align 8
  store i64 %3, ptr %length.i, align 8
  %iv6.i = getelementptr inbounds i8, ptr %other, i64 32
  tail call void @_ZN4node6crypto10ByteSourceC1EOS1_(ptr noundef nonnull align 8 dereferenceable(24) %iv.i, ptr noundef nonnull align 8 dereferenceable(24) %iv6.i) #16
  %additional_data7.i = getelementptr inbounds i8, ptr %other, i64 56
  tail call void @_ZN4node6crypto10ByteSourceC1EOS1_(ptr noundef nonnull align 8 dereferenceable(24) %additional_data.i, ptr noundef nonnull align 8 dereferenceable(24) %additional_data7.i) #16
  %tag8.i = getelementptr inbounds i8, ptr %other, i64 80
  tail call void @_ZN4node6crypto10ByteSourceC1EOS1_(ptr noundef nonnull align 8 dereferenceable(24) %tag.i, ptr noundef nonnull align 8 dereferenceable(24) %tag8.i) #16
  br label %return

return:                                           ; preds = %entry, %if.end
  ret ptr %this
}